Certificate:
    Data:
        Version: 3 (0x2)
        Serial Number:
            33:44:18:9b:44:a3:e7:ce:8e:25:b6:5d:54:56:48:d6:28:78:a7:23
        Signature Algorithm: sha256WithRSAEncryption
        Issuer: C = FR, ST = IDF, L = Paris, O = NodeOPCUA, CN = NodeOPCUA-TEST
        Validity
            Not Before: Jul 24 16:25:22 2019 GMT
            Not After : Jul 20 16:25:22 2034 GMT
        Subject: C = FR, ST = IDF, L = Paris, O = NodeOPCUA, CN = NodeOPCUA-TEST
        Subject Public Key Info:
            Public Key Algorithm: rsaEncryption
                RSA Public-Key: (2048 bit)
                Modulus:
                    00:ba:06:3c:7a:ad:cb:f5:7c:5a:6c:62:7c:c3:83:
                    4d:02:7c:a6:d7:a3:fc:9c:b0:fa:84:e8:72:f1:f7:
                    a0:03:60:d3:d8:2e:4f:24:27:37:f4:78:a0:c2:76:
                    e9:f7:27:b5:70:34:df:eb:94:50:aa:71:1c:48:86:
                    93:8e:db:93:73:00:55:41:4c:d6:4c:e8:dc:ea:b4:
                    b9:64:5d:16:df:ab:6d:f8:14:a3:87:23:fd:26:c5:
                    18:69:ce:d7:1a:20:71:95:6d:6d:55:09:2c:c6:5b:
                    7c:af:cb:07:9b:b0:15:ab:76:0c:c9:d6:2f:3d:65:
                    4a:89:50:a3:3b:b9:5f:47:d0:fd:2c:5b:39:82:4e:
                    90:8d:b6:d8:c4:cd:0a:a2:26:f2:6d:a3:87:bf:8c:
                    db:82:c3:73:59:82:e7:2c:24:d2:f2:f3:56:fd:85:
                    8a:23:01:29:f3:65:f2:05:f6:b6:04:87:30:ef:79:
                    6c:74:14:75:47:16:50:0d:2b:00:09:8d:73:b6:1d:
                    9a:b3:03:51:1b:11:02:71:e1:ff:aa:02:b0:bb:d1:
                    6f:94:0b:55:30:32:0a:e5:1e:48:b6:ba:aa:40:4f:
                    22:8d:a9:e3:59:5c:a3:da:6c:1c:26:ea:66:2e:dd:
                    87:92:ab:fe:29:32:ad:a9:50:31:a1:1c:f1:38:39:
                    d4:41
                Exponent: 65537 (0x10001)
        X509v3 extensions:
            X509v3 Subject Key Identifier: 
                1F:C1:5B:00:D3:C4:A4:AE:40:66:F8:71:3B:3F:67:DD:A9:A7:51:8B
            X509v3 Authority Key Identifier: 
                keyid:1F:C1:5B:00:D3:C4:A4:AE:40:66:F8:71:3B:3F:67:DD:A9:A7:51:8B

            X509v3 Basic Constraints: critical
                CA:FALSE
            X509v3 Key Usage: 
                Digital Signature, Non Repudiation, Key Encipherment, Data Encipherment, Certificate Sign
            X509v3 Extended Key Usage: 
                TLS Web Client Authentication, TLS Web Server Authentication
            Netscape Comment: 
                Self-signed certificate generated by Node-OPCUA Certificate utility
            X509v3 Subject Alternative Name: 
                URI:urn:frey.pfizer.com:Node-OPCUA-Server, DNS:frey.pfizer.com
    Signature Algorithm: sha256WithRSAEncryption
         a3:12:a1:fa:a0:de:ee:00:2c:dd:27:21:04:fd:f0:63:f7:60:
         cf:a2:ed:f4:cd:ab:fd:39:0e:c6:5c:79:79:69:2c:b1:b7:13:
         2f:8d:61:26:e1:1b:c0:d6:c7:32:d4:30:00:55:46:92:b8:d9:
         b7:9a:d0:90:44:e5:44:a7:a0:03:03:8e:f1:3c:f7:f8:86:04:
         74:4b:21:8b:f1:61:03:a5:ff:aa:3b:65:5b:f6:67:ef:a0:42:
         7c:c7:ce:04:cd:4f:d0:31:21:31:e4:45:a9:06:97:9f:01:b2:
         51:33:5b:e7:9e:6f:65:f0:77:4f:fb:05:ab:13:aa:58:78:a8:
         8b:9e:f3:a9:0a:39:c2:ac:84:8a:ad:80:ed:9e:23:7a:94:2e:
         fa:9a:c8:20:2a:f9:5f:f9:ef:fa:dd:fc:3c:b8:5a:11:3c:50:
         1a:f4:2b:f4:70:42:17:ec:ef:03:bd:9e:11:d6:ef:ef:25:90:
         86:34:81:b6:e7:e1:db:58:38:f3:86:7d:43:8e:91:61:b3:46:
         bc:94:56:d2:e7:eb:71:33:d9:52:7c:c6:33:77:ca:c5:93:82:
         f3:c8:09:8b:e9:0f:b7:cf:e2:9a:65:27:d3:7c:63:32:7d:72:
         d9:63:6a:19:c3:02:04:87:6d:07:79:67:60:ed:d7:63:f6:33:
         08:31:4d:3e
-----BEGIN CERTIFICATE-----
MIIEVTCCAz2gAwIBAgIUM0QYm0Sj586OJbZdVFZI1ih4pyMwDQYJKoZIhvcNAQEL
BQAwWDELMAkGA1UEBhMCRlIxDDAKBgNVBAgMA0lERjEOMAwGA1UEBwwFUGFyaXMx
EjAQBgNVBAoMCU5vZGVPUENVQTEXMBUGA1UEAwwOTm9kZU9QQ1VBLVRFU1QwHhcN
MTkwNzI0MTYyNTIyWhcNMzQwNzIwMTYyNTIyWjBYMQswCQYDVQQGEwJGUjEMMAoG
A1UECAwDSURGMQ4wDAYDVQQHDAVQYXJpczESMBAGA1UECgwJTm9kZU9QQ1VBMRcw
FQYDVQQDDA5Ob2RlT1BDVUEtVEVTVDCCASIwDQYJKoZIhvcNAQEBBQADggEPADCC
AQoCggEBALoGPHqty/V8WmxifMODTQJ8ptej/Jyw+oTocvH3oANg09guTyQnN/R4
oMJ26fcntXA03+uUUKpxHEiGk47bk3MAVUFM1kzo3Oq0uWRdFt+rbfgUo4cj/SbF
GGnO1xogcZVtbVUJLMZbfK/LB5uwFat2DMnWLz1lSolQozu5X0fQ/SxbOYJOkI22
2MTNCqIm8m2jh7+M24LDc1mC5ywk0vLzVv2FiiMBKfNl8gX2tgSHMO95bHQUdUcW
UA0rAAmNc7YdmrMDURsRAnHh/6oCsLvRb5QLVTAyCuUeSLa6qkBPIo2p41lco9ps
HCbqZi7dh5Kr/ikyralQMaEc8Tg51EECAwEAAaOCARUwggERMB0GA1UdDgQWBBQf
wVsA08SkrkBm+HE7P2fdqadRizAfBgNVHSMEGDAWgBQfwVsA08SkrkBm+HE7P2fd
qadRizAMBgNVHRMBAf8EAjAAMAsGA1UdDwQEAwIC9DAdBgNVHSUEFjAUBggrBgEF
BQcDAgYIKwYBBQUHAwEwUgYJYIZIAYb4QgENBEUWQ1NlbGYtc2lnbmVkIGNlcnRp
ZmljYXRlIGdlbmVyYXRlZCBieSBOb2RlLU9QQ1VBIENlcnRpZmljYXRlIHV0aWxp
dHkwQQYDVR0RBDowOIYldXJuOmZyZXkucGZpemVyLmNvbTpOb2RlLU9QQ1VBLVNl
cnZlcoIPZnJleS5wZml6ZXIuY29tMA0GCSqGSIb3DQEBCwUAA4IBAQCjEqH6oN7u
ACzdJyEE/fBj92DPou30zav9OQ7GXHl5aSyxtxMvjWEm4RvA1scy1DAAVUaSuNm3
mtCQROVEp6ADA47xPPf4hgR0SyGL8WEDpf+qO2Vb9mfvoEJ8x84EzU/QMSEx5EWp
BpefAbJRM1vnnm9l8HdP+wWrE6pYeKiLnvOpCjnCrISKrYDtniN6lC76msggKvlf
+e/63fw8uFoRPFAa9Cv0cEIX7O8DvZ4R1u/vJZCGNIG25+HbWDjzhn1DjpFhs0a8
lFbS5+txM9lSfMYzd8rFk4LzyAmL6Q+3z+KaZSfTfGMyfXLZY2oZwwIEh20HeWdg
7ddj9jMIMU0+
-----END CERTIFICATE-----
