Certificate:
    Data:
        Version: 3 (0x2)
        Serial Number:
            06:25:6c:8f:cf:5f:d9:70:57:7f:c1:b0:91:31:0d:c7:6c:8d:76:37
        Signature Algorithm: sha256WithRSAEncryption
        Issuer: C = FR, ST = IDF, L = Paris, O = NodeOPCUA, CN = NodeOPCUA-TEST
        Validity
            Not Before: Jul 24 16:25:21 2019 GMT
            Not After : Jul 20 16:25:21 2034 GMT
        Subject: C = FR, ST = IDF, L = Paris, O = NodeOPCUA, CN = NodeOPCUA-TEST
        Subject Public Key Info:
            Public Key Algorithm: rsaEncryption
                RSA Public-Key: (2048 bit)
                Modulus:
                    00:b0:32:50:50:ea:05:43:9a:68:9e:77:f2:57:0e:
                    82:bd:25:95:42:e2:2c:99:74:17:26:87:02:43:14:
                    d1:76:e8:f3:6f:91:17:7c:7d:1e:18:7e:33:60:7e:
                    4c:2f:b2:57:cc:d7:df:df:8f:3f:24:4e:d8:94:38:
                    e3:ac:1c:32:6d:86:78:1d:19:61:d2:af:ca:c9:8f:
                    b7:bb:56:ff:37:23:61:14:7b:85:09:a1:57:68:7f:
                    c7:21:1f:26:f2:14:79:fc:b7:a2:15:ad:61:bf:2a:
                    d2:44:d1:29:93:0f:26:41:b4:09:a6:5a:91:b3:87:
                    a5:3d:00:f9:20:02:9c:dc:ba:24:01:54:de:e0:e7:
                    c8:1d:84:04:fc:34:b7:43:4d:26:00:a5:39:df:c8:
                    e1:05:8a:78:59:08:10:62:5d:9d:bb:81:8c:23:30:
                    54:fe:f2:dc:02:02:7c:d9:b9:18:95:02:d6:2e:2a:
                    1d:1f:99:9f:bc:b6:b9:75:06:cd:81:a8:32:44:a1:
                    3b:b5:2e:94:65:07:83:e1:a0:5c:15:58:00:f9:45:
                    11:ba:66:7c:72:df:53:b6:ab:10:83:3d:4d:f7:81:
                    c1:2f:8b:14:11:8d:ad:c7:b8:a8:7e:cb:86:8a:1d:
                    68:3c:df:af:35:ab:8f:4a:03:1f:3c:e7:53:34:96:
                    c5:2d
                Exponent: 65537 (0x10001)
        X509v3 extensions:
            X509v3 Subject Key Identifier: 
                3E:8B:EF:12:99:B2:07:26:20:99:35:3B:35:46:8A:9A:D2:97:63:18
            X509v3 Authority Key Identifier: 
                keyid:3E:8B:EF:12:99:B2:07:26:20:99:35:3B:35:46:8A:9A:D2:97:63:18

            X509v3 Basic Constraints: critical
                CA:FALSE
            X509v3 Key Usage: 
                Digital Signature, Non Repudiation, Key Encipherment, Data Encipherment, Certificate Sign
            X509v3 Extended Key Usage: 
                TLS Web Client Authentication, TLS Web Server Authentication
            Netscape Comment: 
                Self-signed certificate generated by Node-OPCUA Certificate utility
            X509v3 Subject Alternative Name: 
                URI:urn:frey.pfizer.com:Node-OPCUA-Server, DNS:frey.pfizer.com
    Signature Algorithm: sha256WithRSAEncryption
         56:f7:d4:11:90:89:8e:c1:41:54:30:98:b4:db:40:a7:fe:7e:
         3a:26:cc:d5:20:1e:5c:e5:68:01:79:bb:bf:a3:a6:66:c6:21:
         2f:a7:c8:2f:da:66:68:c3:e6:6a:0d:90:f7:34:2e:a5:8e:cc:
         6c:ac:8a:37:16:ad:21:4d:94:f0:09:0c:e6:54:3c:ec:ee:cf:
         4e:64:f2:57:c2:5c:c8:91:3f:bb:07:a1:88:94:fe:d5:51:c5:
         1e:13:53:11:9a:51:a3:68:e6:3e:16:cc:90:14:2e:ac:0b:b9:
         8e:ad:45:bc:bc:80:ad:09:09:db:d0:e3:d2:6f:e7:58:37:78:
         f8:05:05:9c:c2:2a:ab:0c:b1:b5:77:17:2e:57:31:b4:02:79:
         3a:6b:b3:6b:15:c9:f5:23:bc:d8:cd:68:73:bf:67:cb:95:ce:
         60:1d:60:c8:f3:06:32:c4:a1:be:73:32:4f:88:2c:9b:c1:30:
         a8:fa:82:c7:f5:e4:ac:9d:69:ef:9e:c3:7e:07:65:d1:a7:4a:
         a8:e5:6c:25:2e:46:ff:df:c8:01:e4:5c:82:1b:50:ca:cd:da:
         77:a8:00:78:df:3f:23:89:96:4d:f8:09:29:51:4a:34:66:b7:
         77:0f:93:dc:46:df:07:be:d2:ac:c1:fd:00:eb:f3:3e:9d:df:
         fb:85:e6:e6
-----BEGIN CERTIFICATE-----
MIIEVTCCAz2gAwIBAgIUBiVsj89f2XBXf8GwkTENx2yNdjcwDQYJKoZIhvcNAQEL
BQAwWDELMAkGA1UEBhMCRlIxDDAKBgNVBAgMA0lERjEOMAwGA1UEBwwFUGFyaXMx
EjAQBgNVBAoMCU5vZGVPUENVQTEXMBUGA1UEAwwOTm9kZU9QQ1VBLVRFU1QwHhcN
MTkwNzI0MTYyNTIxWhcNMzQwNzIwMTYyNTIxWjBYMQswCQYDVQQGEwJGUjEMMAoG
A1UECAwDSURGMQ4wDAYDVQQHDAVQYXJpczESMBAGA1UECgwJTm9kZU9QQ1VBMRcw
FQYDVQQDDA5Ob2RlT1BDVUEtVEVTVDCCASIwDQYJKoZIhvcNAQEBBQADggEPADCC
AQoCggEBALAyUFDqBUOaaJ538lcOgr0llULiLJl0FyaHAkMU0Xbo82+RF3x9Hhh+
M2B+TC+yV8zX39+PPyRO2JQ446wcMm2GeB0ZYdKvysmPt7tW/zcjYRR7hQmhV2h/
xyEfJvIUefy3ohWtYb8q0kTRKZMPJkG0CaZakbOHpT0A+SACnNy6JAFU3uDnyB2E
BPw0t0NNJgClOd/I4QWKeFkIEGJdnbuBjCMwVP7y3AICfNm5GJUC1i4qHR+Zn7y2
uXUGzYGoMkShO7UulGUHg+GgXBVYAPlFEbpmfHLfU7arEIM9TfeBwS+LFBGNrce4
qH7LhoodaDzfrzWrj0oDHzznUzSWxS0CAwEAAaOCARUwggERMB0GA1UdDgQWBBQ+
i+8SmbIHJiCZNTs1Roqa0pdjGDAfBgNVHSMEGDAWgBQ+i+8SmbIHJiCZNTs1Roqa
0pdjGDAMBgNVHRMBAf8EAjAAMAsGA1UdDwQEAwIC9DAdBgNVHSUEFjAUBggrBgEF
BQcDAgYIKwYBBQUHAwEwUgYJYIZIAYb4QgENBEUWQ1NlbGYtc2lnbmVkIGNlcnRp
ZmljYXRlIGdlbmVyYXRlZCBieSBOb2RlLU9QQ1VBIENlcnRpZmljYXRlIHV0aWxp
dHkwQQYDVR0RBDowOIYldXJuOmZyZXkucGZpemVyLmNvbTpOb2RlLU9QQ1VBLVNl
cnZlcoIPZnJleS5wZml6ZXIuY29tMA0GCSqGSIb3DQEBCwUAA4IBAQBW99QRkImO
wUFUMJi020Cn/n46JszVIB5c5WgBebu/o6ZmxiEvp8gv2mZow+ZqDZD3NC6ljsxs
rIo3Fq0hTZTwCQzmVDzs7s9OZPJXwlzIkT+7B6GIlP7VUcUeE1MRmlGjaOY+FsyQ
FC6sC7mOrUW8vICtCQnb0OPSb+dYN3j4BQWcwiqrDLG1dxcuVzG0Ank6a7NrFcn1
I7zYzWhzv2fLlc5gHWDI8wYyxKG+czJPiCybwTCo+oLH9eSsnWnvnsN+B2XRp0qo
5WwlLkb/38gB5FyCG1DKzdp3qAB43z8jiZZN+AkpUUo0Zrd3D5PcRt8HvtKswf0A
6/M+nd/7hebm
-----END CERTIFICATE-----
