Certificate:
    Data:
        Version: 3 (0x2)
        Serial Number:
            09:22:0e:0e:30:c9:c7:1a:cb:24:c3:da:b7:b4:e1:9a:ba:3d:b6:5a
        Signature Algorithm: sha256WithRSAEncryption
        Issuer: C = FR, ST = IDF, L = Paris, O = NodeOPCUA, CN = NodeOPCUA-TEST
        Validity
            Not Before: Jul 24 16:25:22 2019 GMT
            Not After : Jul 20 16:25:22 2034 GMT
        Subject: C = FR, ST = IDF, L = Paris, O = NodeOPCUA, CN = NodeOPCUA-TEST
        Subject Public Key Info:
            Public Key Algorithm: rsaEncryption
                RSA Public-Key: (2048 bit)
                Modulus:
                    00:e5:ea:fc:ed:1a:f6:62:4b:ef:ce:9e:14:7e:26:
                    a8:42:2c:36:03:e0:ab:05:71:bf:44:01:e6:f5:ff:
                    c8:da:21:ba:1c:74:64:09:ac:94:30:1a:39:ec:66:
                    0c:1a:0f:44:a5:b9:5f:4f:87:d0:19:1d:44:2d:d9:
                    12:90:0b:c3:dd:3f:7a:d8:15:43:e0:00:73:1b:75:
                    1c:13:61:b7:33:a7:0d:b0:2a:1f:2a:bb:4d:92:dd:
                    b2:24:6b:33:15:7e:89:e3:34:e2:e1:7c:9e:7c:29:
                    aa:65:24:5a:a1:7d:03:a1:97:40:06:19:61:f2:b8:
                    81:d9:7e:f2:75:8c:06:b2:79:25:8e:cf:42:74:1f:
                    36:52:dc:49:40:69:f6:b4:7b:27:94:0a:d8:54:0e:
                    d5:a9:ab:d7:ee:7b:5d:e1:ef:3e:b4:79:21:36:26:
                    01:4f:1d:25:f8:fc:a4:b2:ee:af:08:4a:91:55:97:
                    8d:c7:02:d1:d9:0b:f0:58:39:98:6a:f0:25:d5:14:
                    b1:e0:79:bb:28:aa:b1:74:82:1e:c3:94:29:36:df:
                    ed:aa:99:5c:9f:da:f3:98:03:ec:24:ae:21:5c:ca:
                    07:a8:6c:21:ef:be:3e:d0:1f:80:64:19:77:e3:b9:
                    7f:1c:81:72:6d:ca:48:c5:65:3f:66:56:6c:44:e8:
                    7d:e3
                Exponent: 65537 (0x10001)
        X509v3 extensions:
            X509v3 Subject Key Identifier: 
                6B:1C:31:38:AB:87:3E:F6:E0:4A:00:17:66:DB:03:7E:AE:5E:63:DB
            X509v3 Authority Key Identifier: 
                keyid:6B:1C:31:38:AB:87:3E:F6:E0:4A:00:17:66:DB:03:7E:AE:5E:63:DB

            X509v3 Basic Constraints: critical
                CA:FALSE
            X509v3 Key Usage: 
                Digital Signature, Non Repudiation, Key Encipherment, Data Encipherment, Certificate Sign
            X509v3 Extended Key Usage: 
                TLS Web Client Authentication, TLS Web Server Authentication
            Netscape Comment: 
                Self-signed certificate generated by Node-OPCUA Certificate utility
            X509v3 Subject Alternative Name: 
                URI:urn:frey.pfizer.com:Node-OPCUA-Server, DNS:frey.pfizer.com
    Signature Algorithm: sha256WithRSAEncryption
         d8:ec:78:c7:51:4e:74:c9:9b:c2:8f:c7:49:4e:3c:7f:c4:58:
         f5:86:87:ef:a1:85:42:bc:b1:0d:8e:f4:ae:0e:e3:e3:d6:01:
         a4:f7:a1:d3:25:ec:e9:92:29:16:02:50:2e:6c:16:65:fb:d0:
         af:30:3e:d1:5e:dc:68:bb:73:7d:1c:c5:16:d0:5f:18:64:51:
         ab:02:13:43:42:15:7e:2f:64:ab:7d:06:3b:f9:fc:44:6f:4b:
         ac:4b:ab:ab:16:a0:a5:58:6c:49:19:2f:64:4e:f3:01:4a:1d:
         78:c7:3b:ae:5d:f7:2c:f1:41:c2:fe:f2:36:91:5a:c1:7e:ab:
         8a:16:fd:71:be:2d:26:6d:7e:cb:c9:bd:8e:fa:ad:e6:a4:7b:
         7d:df:1f:d6:88:b9:81:5c:6c:a3:3d:f3:84:b1:49:35:50:ff:
         08:eb:15:a7:a5:22:9f:0d:d3:a9:13:99:bb:7b:e1:d6:d5:85:
         c2:69:ab:ed:b6:a4:43:75:8f:cb:92:8c:74:ea:c4:74:ba:3e:
         6c:8a:01:e7:23:7a:f2:32:59:8e:6c:d4:ab:99:c8:fc:76:fa:
         7d:9e:b3:9f:f2:e8:c1:bc:de:a9:d7:b3:71:43:c2:21:b9:13:
         51:5e:fe:e1:b0:1e:08:92:2a:86:1a:4e:79:5f:8f:17:72:89:
         9c:e5:c4:0d
-----BEGIN CERTIFICATE-----
MIIEVTCCAz2gAwIBAgIUCSIODjDJxxrLJMPat7Thmro9tlowDQYJKoZIhvcNAQEL
BQAwWDELMAkGA1UEBhMCRlIxDDAKBgNVBAgMA0lERjEOMAwGA1UEBwwFUGFyaXMx
EjAQBgNVBAoMCU5vZGVPUENVQTEXMBUGA1UEAwwOTm9kZU9QQ1VBLVRFU1QwHhcN
MTkwNzI0MTYyNTIyWhcNMzQwNzIwMTYyNTIyWjBYMQswCQYDVQQGEwJGUjEMMAoG
A1UECAwDSURGMQ4wDAYDVQQHDAVQYXJpczESMBAGA1UECgwJTm9kZU9QQ1VBMRcw
FQYDVQQDDA5Ob2RlT1BDVUEtVEVTVDCCASIwDQYJKoZIhvcNAQEBBQADggEPADCC
AQoCggEBAOXq/O0a9mJL786eFH4mqEIsNgPgqwVxv0QB5vX/yNohuhx0ZAmslDAa
OexmDBoPRKW5X0+H0BkdRC3ZEpALw90/etgVQ+AAcxt1HBNhtzOnDbAqHyq7TZLd
siRrMxV+ieM04uF8nnwpqmUkWqF9A6GXQAYZYfK4gdl+8nWMBrJ5JY7PQnQfNlLc
SUBp9rR7J5QK2FQO1amr1+57XeHvPrR5ITYmAU8dJfj8pLLurwhKkVWXjccC0dkL
8Fg5mGrwJdUUseB5uyiqsXSCHsOUKTbf7aqZXJ/a85gD7CSuIVzKB6hsIe++PtAf
gGQZd+O5fxyBcm3KSMVlP2ZWbETofeMCAwEAAaOCARUwggERMB0GA1UdDgQWBBRr
HDE4q4c+9uBKABdm2wN+rl5j2zAfBgNVHSMEGDAWgBRrHDE4q4c+9uBKABdm2wN+
rl5j2zAMBgNVHRMBAf8EAjAAMAsGA1UdDwQEAwIC9DAdBgNVHSUEFjAUBggrBgEF
BQcDAgYIKwYBBQUHAwEwUgYJYIZIAYb4QgENBEUWQ1NlbGYtc2lnbmVkIGNlcnRp
ZmljYXRlIGdlbmVyYXRlZCBieSBOb2RlLU9QQ1VBIENlcnRpZmljYXRlIHV0aWxp
dHkwQQYDVR0RBDowOIYldXJuOmZyZXkucGZpemVyLmNvbTpOb2RlLU9QQ1VBLVNl
cnZlcoIPZnJleS5wZml6ZXIuY29tMA0GCSqGSIb3DQEBCwUAA4IBAQDY7HjHUU50
yZvCj8dJTjx/xFj1hofvoYVCvLENjvSuDuPj1gGk96HTJezpkikWAlAubBZl+9Cv
MD7RXtxou3N9HMUW0F8YZFGrAhNDQhV+L2SrfQY7+fxEb0usS6urFqClWGxJGS9k
TvMBSh14xzuuXfcs8UHC/vI2kVrBfquKFv1xvi0mbX7Lyb2O+q3mpHt93x/WiLmB
XGyjPfOEsUk1UP8I6xWnpSKfDdOpE5m7e+HW1YXCaavttqRDdY/Lkox06sR0uj5s
igHnI3ryMlmObNSrmcj8dvp9nrOf8ujBvN6p17NxQ8IhuRNRXv7hsB4IkiqGGk55
X48Xcomc5cQN
-----END CERTIFICATE-----
