Certificate:
    Data:
        Version: 3 (0x2)
        Serial Number:
            5b:55:3b:b1:83:aa:bb:21:73:52:a2:cd:96:7c:19:22:c0:ec:6e:5d
        Signature Algorithm: sha256WithRSAEncryption
        Issuer: C = FR, ST = IDF, L = Paris, O = NodeOPCUA, CN = NodeOPCUA-TEST
        Validity
            Not Before: Jul 24 16:25:21 2019 GMT
            Not After : Jul 20 16:25:21 2034 GMT
        Subject: C = FR, ST = IDF, L = Paris, O = NodeOPCUA, CN = NodeOPCUA-TEST
        Subject Public Key Info:
            Public Key Algorithm: rsaEncryption
                RSA Public-Key: (2048 bit)
                Modulus:
                    00:b9:de:89:19:3f:d3:b2:94:3a:bb:f9:1c:9c:4c:
                    01:b9:80:af:6e:ac:30:d6:36:e0:a2:00:34:cd:9d:
                    69:37:86:e2:95:6f:52:fc:30:65:7b:a7:85:e4:91:
                    1f:cb:1c:5e:bc:f7:07:f5:67:0b:49:eb:cd:a6:9a:
                    5d:1f:48:c5:37:8d:72:59:e6:23:3f:21:98:d6:a3:
                    61:e7:f5:d0:49:4c:22:a3:eb:9d:4d:1c:d6:67:fb:
                    ab:1c:7c:06:80:94:77:4b:3d:f6:66:87:d8:c8:40:
                    fa:dd:8e:1f:d9:e1:e5:f2:49:53:6e:f4:e4:cf:81:
                    e6:7a:8c:63:c8:e2:57:9f:48:57:72:eb:74:70:c6:
                    3f:11:6e:b1:ff:07:8e:a3:42:4e:4a:39:f7:c9:38:
                    58:84:e5:81:55:c0:76:ea:84:7d:e6:20:0d:9b:6c:
                    72:eb:d5:49:46:e4:e0:32:46:1a:d0:dc:5d:97:32:
                    04:2f:50:89:bf:66:16:50:c1:5a:e5:11:17:97:18:
                    60:68:0d:d1:1f:45:75:41:95:b5:59:70:d5:17:32:
                    49:73:71:1b:14:22:b9:5f:43:6a:9d:35:c9:8d:7b:
                    00:f0:12:07:ec:84:0b:b2:60:4a:7a:ce:4c:50:6f:
                    78:a7:4c:c9:b7:c4:b7:f9:bf:f1:ca:a4:a4:42:3e:
                    00:23
                Exponent: 65537 (0x10001)
        X509v3 extensions:
            X509v3 Subject Key Identifier: 
                2D:B9:57:46:99:49:35:50:D9:86:DB:63:AA:ED:C2:3B:8C:2F:BB:56
            X509v3 Authority Key Identifier: 
                keyid:2D:B9:57:46:99:49:35:50:D9:86:DB:63:AA:ED:C2:3B:8C:2F:BB:56

            X509v3 Basic Constraints: critical
                CA:FALSE
            X509v3 Key Usage: 
                Digital Signature, Non Repudiation, Key Encipherment, Data Encipherment, Certificate Sign
            X509v3 Extended Key Usage: 
                TLS Web Client Authentication, TLS Web Server Authentication
            Netscape Comment: 
                Self-signed certificate generated by Node-OPCUA Certificate utility
            X509v3 Subject Alternative Name: 
                URI:urn:frey.pfizer.com:Node-OPCUA-Server, DNS:frey.pfizer.com
    Signature Algorithm: sha256WithRSAEncryption
         3a:63:7c:35:c9:e4:d3:97:21:23:0c:d6:f9:86:c4:41:f8:b1:
         9f:e0:28:5c:24:8e:89:ce:46:e2:71:fb:6d:a1:98:98:33:80:
         00:ac:c5:94:17:1d:8b:f5:38:ab:ab:b7:2b:f1:27:d4:ac:bf:
         c7:d3:9b:72:51:3e:33:db:7e:fa:ac:af:30:75:62:bd:3f:95:
         72:c6:7c:80:60:99:d7:4c:94:3e:5f:2d:53:c8:fd:b9:de:00:
         0e:25:d6:9e:00:02:68:2d:95:c6:06:9e:d2:33:89:3b:e5:ad:
         b2:70:6b:63:98:35:2d:19:23:85:80:29:51:f0:c6:13:dd:bf:
         68:cd:41:7d:22:28:50:26:fb:93:e9:1f:8c:29:bf:f7:65:56:
         7c:e0:58:54:bb:9d:03:7a:57:86:d4:74:c5:7e:b8:ed:49:1d:
         da:d7:c7:d3:c3:f0:58:fe:d6:92:22:75:c5:9b:fe:4b:ec:c4:
         bd:2d:56:e6:2d:bd:84:09:b8:78:66:64:32:0d:4d:e2:6e:65:
         bb:c7:fc:95:f6:9d:a2:17:99:a9:23:d6:64:4d:61:3b:e0:2d:
         00:3e:2f:0c:ae:7c:03:95:31:4d:8c:f9:83:ba:3f:4d:ac:02:
         4d:26:ac:b6:b3:0b:2e:d4:14:2d:65:e1:db:8a:4e:7e:02:b0:
         fd:c3:08:db
-----BEGIN CERTIFICATE-----
MIIEVTCCAz2gAwIBAgIUW1U7sYOquyFzUqLNlnwZIsDsbl0wDQYJKoZIhvcNAQEL
BQAwWDELMAkGA1UEBhMCRlIxDDAKBgNVBAgMA0lERjEOMAwGA1UEBwwFUGFyaXMx
EjAQBgNVBAoMCU5vZGVPUENVQTEXMBUGA1UEAwwOTm9kZU9QQ1VBLVRFU1QwHhcN
MTkwNzI0MTYyNTIxWhcNMzQwNzIwMTYyNTIxWjBYMQswCQYDVQQGEwJGUjEMMAoG
A1UECAwDSURGMQ4wDAYDVQQHDAVQYXJpczESMBAGA1UECgwJTm9kZU9QQ1VBMRcw
FQYDVQQDDA5Ob2RlT1BDVUEtVEVTVDCCASIwDQYJKoZIhvcNAQEBBQADggEPADCC
AQoCggEBALneiRk/07KUOrv5HJxMAbmAr26sMNY24KIANM2daTeG4pVvUvwwZXun
heSRH8scXrz3B/VnC0nrzaaaXR9IxTeNclnmIz8hmNajYef10ElMIqPrnU0c1mf7
qxx8BoCUd0s99maH2MhA+t2OH9nh5fJJU2705M+B5nqMY8jiV59IV3LrdHDGPxFu
sf8HjqNCTko598k4WITlgVXAduqEfeYgDZtscuvVSUbk4DJGGtDcXZcyBC9Qib9m
FlDBWuURF5cYYGgN0R9FdUGVtVlw1RcySXNxGxQiuV9Dap01yY17APASB+yEC7Jg
SnrOTFBveKdMybfEt/m/8cqkpEI+ACMCAwEAAaOCARUwggERMB0GA1UdDgQWBBQt
uVdGmUk1UNmG22Oq7cI7jC+7VjAfBgNVHSMEGDAWgBQtuVdGmUk1UNmG22Oq7cI7
jC+7VjAMBgNVHRMBAf8EAjAAMAsGA1UdDwQEAwIC9DAdBgNVHSUEFjAUBggrBgEF
BQcDAgYIKwYBBQUHAwEwUgYJYIZIAYb4QgENBEUWQ1NlbGYtc2lnbmVkIGNlcnRp
ZmljYXRlIGdlbmVyYXRlZCBieSBOb2RlLU9QQ1VBIENlcnRpZmljYXRlIHV0aWxp
dHkwQQYDVR0RBDowOIYldXJuOmZyZXkucGZpemVyLmNvbTpOb2RlLU9QQ1VBLVNl
cnZlcoIPZnJleS5wZml6ZXIuY29tMA0GCSqGSIb3DQEBCwUAA4IBAQA6Y3w1yeTT
lyEjDNb5hsRB+LGf4ChcJI6JzkbicfttoZiYM4AArMWUFx2L9Tirq7cr8SfUrL/H
05tyUT4z2376rK8wdWK9P5VyxnyAYJnXTJQ+Xy1TyP253gAOJdaeAAJoLZXGBp7S
M4k75a2ycGtjmDUtGSOFgClR8MYT3b9ozUF9IihQJvuT6R+MKb/3ZVZ84FhUu50D
eleG1HTFfrjtSR3a18fTw/BY/taSInXFm/5L7MS9LVbmLb2ECbh4ZmQyDU3ibmW7
x/yV9p2iF5mpI9ZkTWE74C0APi8MrnwDlTFNjPmDuj9NrAJNJqy2swsu1BQtZeHb
ik5+ArD9wwjb
-----END CERTIFICATE-----
